target datalayout = "e-m:e-p270:32:32-p271:32:32-p272:64:64-i64:64-i128:128-f80:128-n8:16:32:64-S128"
target triple = "x86_64-unknown-linux-gnu"

%"class.cvc5::internal::prop::OptimizedClausesManager" = type { %"class.cvc5::context::ContextNotifyObj", ptr, ptr, ptr, ptr, ptr }
%"class.cvc5::context::ContextNotifyObj" = type { ptr, ptr, ptr }

; Function Attrs: mustprogress uwtable
define hidden void @_ZN4cvc58internal4prop23OptimizedClausesManagerC2EPNS_7context7ContextEPNS0_7CDProofERSt3mapIiSt6vectorISt10shared_ptrINS0_9ProofNodeEESaISC_EESt4lessIiESaISt4pairIKiSE_EEE(ptr noundef nonnull align 8 dereferenceable(64) %this, ptr noundef %context, ptr noundef %parentProof, ptr noundef nonnull align 8 dereferenceable(48) %optProofs) unnamed_addr #4 align 2 {
entry:
  %this.addr = alloca ptr, align 8
  %context.addr = alloca ptr, align 8
  %parentProof.addr = alloca ptr, align 8
  %optProofs.addr = alloca ptr, align 8
  store ptr %this, ptr %this.addr, align 8
  store ptr %context, ptr %context.addr, align 8
  store ptr %parentProof, ptr %parentProof.addr, align 8
  store ptr %optProofs, ptr %optProofs.addr, align 8
  %this1 = load ptr, ptr %this.addr, align 8
  %0 = load ptr, ptr %context.addr, align 8
  call void @_ZN4cvc57context16ContextNotifyObjC2EPNS0_7ContextEb(ptr noundef nonnull align 8 dereferenceable(24) %this1, ptr noundef %0, i1 noundef zeroext false)
  store ptr getelementptr inbounds ({ [5 x ptr] }, ptr @_ZTVN4cvc58internal4prop23OptimizedClausesManagerE, i32 0, i32 0, i32 2), ptr %this1, align 8
  %d_context = getelementptr inbounds %"class.cvc5::internal::prop::OptimizedClausesManager", ptr %this1, i32 0, i32 1
  %1 = load ptr, ptr %context.addr, align 8
  store ptr %1, ptr %d_context, align 8
  %d_optProofs = getelementptr inbounds %"class.cvc5::internal::prop::OptimizedClausesManager", ptr %this1, i32 0, i32 2
  %2 = load ptr, ptr %optProofs.addr, align 8
  store ptr %2, ptr %d_optProofs, align 8
  %d_parentProof = getelementptr inbounds %"class.cvc5::internal::prop::OptimizedClausesManager", ptr %this1, i32 0, i32 3
  %3 = load ptr, ptr %parentProof.addr, align 8
  store ptr %3, ptr %d_parentProof, align 8
  %d_nodeHashSet = getelementptr inbounds %"class.cvc5::internal::prop::OptimizedClausesManager", ptr %this1, i32 0, i32 4
  store ptr null, ptr %d_nodeHashSet, align 8
  %d_nodeLevels = getelementptr inbounds %"class.cvc5::internal::prop::OptimizedClausesManager", ptr %this1, i32 0, i32 5
  store ptr null, ptr %d_nodeLevels, align 8
  ret void
}