; Function Attrs: mustprogress uwtable
define hidden void @_ZN4cvc58internal4prop23OptimizedClausesManagerC2EPNS_7context7ContextEPNS0_7CDProofERSt3mapIiSt6vectorISt10shared_ptrINS0_9ProofNodeEESaISC_EESt4lessIiESaISt4pairIKiSE_EEE(ptr noundef nonnull align 8 dereferenceable(64) %this, ptr noundef %context, ptr noundef %parentProof, ptr noundef nonnull align 8 dereferenceable(48) %optProofs) unnamed_addr #3 align 2 {
entry:
  tail call void @_ZN4cvc57context16ContextNotifyObjC2EPNS0_7ContextEb(ptr noundef nonnull align 8 dereferenceable(24) %this, ptr noundef %context, i1 noundef zeroext false)
  store ptr getelementptr inbounds ({ [5 x ptr] }, ptr @_ZTVN4cvc58internal4prop23OptimizedClausesManagerE, i64 0, i32 0, i64 2), ptr %this, align 8
  %d_context = getelementptr inbounds i8, ptr %this, i64 24
  store ptr %context, ptr %d_context, align 8
  %d_optProofs = getelementptr inbounds i8, ptr %this, i64 32
  store ptr %optProofs, ptr %d_optProofs, align 8
  %d_parentProof = getelementptr inbounds i8, ptr %this, i64 40
  store ptr %parentProof, ptr %d_parentProof, align 8
  %d_nodeHashSet = getelementptr inbounds i8, ptr %this, i64 48
  tail call void @llvm.memset.p0.i64(ptr noundef nonnull align 8 dereferenceable(16) %d_nodeHashSet, i8 0, i64 16, i1 false)
  ret void
}